Certificate:
    Data:
        Version: 3 (0x2)
        Serial Number: 4097 (0x1001)
        Signature Algorithm: md5WithRSAEncryption
        Issuer: C=US, ST=Utah, L=Salt Lake City, O=MyTLSLite, OU=chooms, CN=Main Choom/emailAddress=reynoso.roberto.v@gmail.com
        Validity
            Not Before: Mar 28 04:29:54 2025 GMT
            Not After : Mar 28 04:29:54 2026 GMT
        Subject: C=US, ST=Utah, O=MyTLSLite, OU=chooms, CN=Client Choom/emailAddress=reynoso.roberto.v@gmail.com
        Subject Public Key Info:
            Public Key Algorithm: rsaEncryption
                Public-Key: (4096 bit)
                Modulus:
                    00:ba:75:a8:94:84:6a:9a:57:24:4b:9b:1c:a6:54:
                    a7:56:5d:32:c8:5e:f4:4b:20:18:67:b2:8f:43:ee:
                    47:b1:a5:90:12:70:a4:c4:33:75:d5:98:83:d9:98:
                    46:35:79:44:f9:b1:4f:2e:68:c1:34:d4:69:53:70:
                    02:c2:bd:7c:8a:89:34:1a:cb:7e:0d:bf:80:53:51:
                    91:5a:29:2e:25:8a:b9:36:d0:50:a9:7e:e2:d7:2b:
                    1f:4c:94:1f:37:b0:b8:42:22:e8:58:d9:82:25:65:
                    50:88:2c:d9:19:49:a2:3e:39:9e:cc:57:3b:4e:6d:
                    85:da:e0:14:b3:90:ee:14:dc:2f:ec:64:c7:cb:e4:
                    79:b7:61:9e:b3:8d:5d:54:4d:0a:14:9b:bf:96:53:
                    c3:db:35:22:82:e4:cc:68:a1:6e:f4:79:41:54:18:
                    fe:ac:5c:11:bf:5d:ad:95:df:f9:50:35:5d:fb:31:
                    5b:be:36:9f:9d:95:4b:a3:53:cd:27:42:84:ee:a3:
                    96:18:cd:65:30:18:d3:4f:60:3b:4f:1e:ec:43:b7:
                    91:f3:34:4e:6e:af:89:9a:86:23:7f:bc:10:68:95:
                    0c:d4:40:1b:6a:98:4c:11:f4:34:94:38:db:96:ac:
                    21:56:1b:1c:11:19:0f:dc:2b:0f:bc:c7:f5:e5:42:
                    9e:05:c5:a5:12:08:c7:97:20:39:ed:ac:a8:2d:dc:
                    5f:70:89:14:cb:ba:9a:d2:67:e6:b5:39:24:bc:c9:
                    3a:18:7e:42:9d:06:f0:cc:87:50:81:af:d9:53:a4:
                    36:4c:2f:85:76:54:d0:74:f4:46:71:0b:a4:53:3a:
                    8f:14:5b:3f:7c:28:22:63:07:0a:cd:65:37:42:59:
                    8f:9c:a7:c6:ae:28:01:a9:9a:09:53:ee:5b:c6:f4:
                    99:c7:d6:a8:9b:17:0e:9d:9b:70:d3:a6:3e:ee:15:
                    da:af:21:a4:65:42:5d:f3:72:85:9e:5e:8c:3b:f6:
                    1f:1d:b2:5a:e3:2e:ca:c8:1e:ba:aa:95:a5:ac:9a:
                    3f:d8:10:0a:fd:c9:77:38:ce:f5:e2:f6:ad:d2:51:
                    ca:0c:a0:09:ae:fb:b4:01:98:da:8d:04:ad:af:7a:
                    5e:b6:93:81:fe:ec:67:0d:92:13:e3:b5:58:52:c1:
                    fb:31:79:13:3e:1e:8d:96:29:f3:07:b9:b6:79:59:
                    78:05:07:19:d1:ee:df:ef:7c:ae:ea:28:c5:30:97:
                    d2:72:4c:8a:90:c0:13:4b:b2:a5:10:57:97:50:9b:
                    9c:0a:4a:dd:ff:4c:07:d8:da:6d:88:cc:af:fb:9a:
                    31:5c:72:58:36:9f:2f:f7:5c:1d:33:b7:f3:58:f6:
                    13:10:d9
                Exponent: 65537 (0x10001)
        X509v3 extensions:
            X509v3 Basic Constraints: 
                CA:FALSE
            Netscape Comment: 
                OpenSSL Generated Certificate
            X509v3 Subject Key Identifier: 
                AB:5E:E7:E0:30:AF:D3:AD:40:FD:03:C5:65:00:D0:D8:00:C5:08:65
            X509v3 Authority Key Identifier: 
                keyid:63:A7:F6:66:79:D6:C4:61:95:0D:90:B3:4F:64:EB:1E:7B:8E:60:96
                DirName:/C=US/ST=Utah/L=Salt Lake City/O=MyTLSLite/OU=chooms/CN=Main Choom/emailAddress=reynoso.roberto.v@gmail.com
                serial:10:37:8B:A7:BC:E4:E7:5C:D0:56:61:2A:D0:8E:EE:6E:32:BB:4C:F7
    Signature Algorithm: md5WithRSAEncryption
    Signature Value:
        49:39:ea:2c:29:92:2c:e2:e8:17:b1:3d:91:9c:d3:ba:e8:5d:
        ba:75:fd:22:6a:9a:67:75:d6:09:e1:ea:af:ae:01:bb:82:8c:
        59:93:e4:4c:b8:a7:b4:0c:59:2c:ac:11:78:94:db:7b:85:f9:
        91:68:5f:e9:a2:13:40:6e:49:7b:89:01:78:e0:8b:4a:c9:7a:
        d5:77:7d:94:4e:1b:1e:77:d3:4d:78:7d:61:51:3f:c7:fa:c4:
        09:38:3a:55:17:d6:97:64:b5:ed:23:8c:55:74:aa:9b:6e:fa:
        1a:b7:a7:07:49:9c:c4:11:8b:35:14:cc:91:7a:80:01:ce:7b:
        8e:e4:cf:16:c0:83:fa:9b:5f:a9:64:f6:52:ff:6f:4f:e6:46:
        4f:71:0f:f6:28:ec:14:17:19:76:c7:98:ed:1a:08:4e:02:10:
        3a:38:07:21:88:39:14:1b:e6:73:18:9d:da:98:7a:47:90:67:
        e5:dd:9b:f0:76:6f:86:69:23:db:89:91:c2:d4:71:28:d6:fa:
        61:a0:4a:47:00:44:a6:5b:da:78:9b:d7:08:23:ff:ca:5c:d2:
        fb:10:9e:e2:2e:09:8e:ab:e4:c1:10:c7:3f:18:8b:bc:48:2b:
        0e:ee:5d:bf:e0:75:fd:a9:cb:5c:da:68:8d:69:18:c7:1f:02:
        79:b7:fa:7c:35:ff:14:bd:03:6f:fb:4d:1c:3d:d5:b2:0d:75:
        aa:04:a7:f2:02:a4:b3:b0:51:cf:15:c4:22:cf:24:8b:24:0a:
        63:92:ff:47:08:e2:88:46:9c:04:10:7a:17:06:3c:7a:32:88:
        64:a7:ba:32:39:a1:ab:6d:bf:96:4e:d3:fc:7c:b0:93:3b:10:
        a0:89:2c:68:2e:1e:79:a3:b9:c4:ec:de:5c:4d:16:40:cf:44:
        90:07:08:32:ef:81:a8:ef:74:de:dc:83:4f:f6:e6:86:9f:4c:
        3a:83:07:be:23:aa:10:3d:41:fa:be:18:b5:40:67:90:16:11:
        8b:3e:fd:61:d3:23:dc:3f:e3:55:6c:c0:e0:29:cb:bd:e9:07:
        aa:51:f4:76:d1:60:7c:0f:59:0b:83:5f:2b:c9:a6:94:6c:b0:
        22:2a:f6:cd:7c:9a:89:8f:78:fe:8e:b2:e5:57:36:47:1b:f1:
        c0:d2:22:1b:28:de:5d:8b:96:42:ce:fb:1e:2d:70:d4:dc:ab:
        05:85:99:f0:8a:3a:fe:bd:84:d9:25:99:2b:a2:3a:25:da:a6:
        a4:ed:42:34:14:6b:f7:e3:ea:66:c7:49:02:69:ae:40:5c:48:
        28:7f:52:72:0c:6d:0f:14:8f:f0:3d:84:86:da:ab:bf:8b:74:
        f5:94:fd:a7:8f:e2:be:3d
-----BEGIN CERTIFICATE-----
MIIG2TCCBMGgAwIBAgICEAEwDQYJKoZIhvcNAQEEBQAwgZsxCzAJBgNVBAYTAlVT
MQ0wCwYDVQQIDARVdGFoMRcwFQYDVQQHDA5TYWx0IExha2UgQ2l0eTESMBAGA1UE
CgwJTXlUTFNMaXRlMQ8wDQYDVQQLDAZjaG9vbXMxEzARBgNVBAMMCk1haW4gQ2hv
b20xKjAoBgkqhkiG9w0BCQEWG3JleW5vc28ucm9iZXJ0by52QGdtYWlsLmNvbTAe
Fw0yNTAzMjgwNDI5NTRaFw0yNjAzMjgwNDI5NTRaMIGEMQswCQYDVQQGEwJVUzEN
MAsGA1UECAwEVXRhaDESMBAGA1UECgwJTXlUTFNMaXRlMQ8wDQYDVQQLDAZjaG9v
bXMxFTATBgNVBAMMDENsaWVudCBDaG9vbTEqMCgGCSqGSIb3DQEJARYbcmV5bm9z
by5yb2JlcnRvLnZAZ21haWwuY29tMIICIjANBgkqhkiG9w0BAQEFAAOCAg8AMIIC
CgKCAgEAunWolIRqmlckS5scplSnVl0yyF70SyAYZ7KPQ+5HsaWQEnCkxDN11ZiD
2ZhGNXlE+bFPLmjBNNRpU3ACwr18iok0Gst+Db+AU1GRWikuJYq5NtBQqX7i1ysf
TJQfN7C4QiLoWNmCJWVQiCzZGUmiPjmezFc7Tm2F2uAUs5DuFNwv7GTHy+R5t2Ge
s41dVE0KFJu/llPD2zUiguTMaKFu9HlBVBj+rFwRv12tld/5UDVd+zFbvjafnZVL
o1PNJ0KE7qOWGM1lMBjTT2A7Tx7sQ7eR8zRObq+JmoYjf7wQaJUM1EAbaphMEfQ0
lDjblqwhVhscERkP3CsPvMf15UKeBcWlEgjHlyA57ayoLdxfcIkUy7qa0mfmtTkk
vMk6GH5CnQbwzIdQga/ZU6Q2TC+FdlTQdPRGcQukUzqPFFs/fCgiYwcKzWU3QlmP
nKfGrigBqZoJU+5bxvSZx9aomxcOnZtw06Y+7hXaryGkZUJd83KFnl6MO/YfHbJa
4y7KyB66qpWlrJo/2BAK/cl3OM714vat0lHKDKAJrvu0AZjajQStr3petpOB/uxn
DZIT47VYUsH7MXkTPh6NlinzB7m2eVl4BQcZ0e7f73yu6ijFMJfSckyKkMATS7Kl
EFeXUJucCkrd/0wH2NptiMyv+5oxXHJYNp8v91wdM7fzWPYTENkCAwEAAaOCATow
ggE2MAkGA1UdEwQCMAAwLAYJYIZIAYb4QgENBB8WHU9wZW5TU0wgR2VuZXJhdGVk
IENlcnRpZmljYXRlMB0GA1UdDgQWBBSrXufgMK/TrUD9A8VlANDYAMUIZTCB2wYD
VR0jBIHTMIHQgBRjp/ZmedbEYZUNkLNPZOsee45glqGBoaSBnjCBmzELMAkGA1UE
BhMCVVMxDTALBgNVBAgMBFV0YWgxFzAVBgNVBAcMDlNhbHQgTGFrZSBDaXR5MRIw
EAYDVQQKDAlNeVRMU0xpdGUxDzANBgNVBAsMBmNob29tczETMBEGA1UEAwwKTWFp
biBDaG9vbTEqMCgGCSqGSIb3DQEJARYbcmV5bm9zby5yb2JlcnRvLnZAZ21haWwu
Y29tghQQN4unvOTnXNBWYSrQju5uMrtM9zANBgkqhkiG9w0BAQQFAAOCAgEASTnq
LCmSLOLoF7E9kZzTuuhdunX9ImqaZ3XWCeHqr64Bu4KMWZPkTLintAxZLKwReJTb
e4X5kWhf6aITQG5Je4kBeOCLSsl61Xd9lE4bHnfTTXh9YVE/x/rECTg6VRfWl2S1
7SOMVXSqm276GrenB0mcxBGLNRTMkXqAAc57juTPFsCD+ptfqWT2Uv9vT+ZGT3EP
9ijsFBcZdseY7RoITgIQOjgHIYg5FBvmcxid2ph6R5Bn5d2b8HZvhmkj24mRwtRx
KNb6YaBKRwBEplvaeJvXCCP/ylzS+xCe4i4JjqvkwRDHPxiLvEgrDu5dv+B1/anL
XNpojWkYxx8Cebf6fDX/FL0Db/tNHD3Vsg11qgSn8gKks7BRzxXEIs8kiyQKY5L/
RwjiiEacBBB6FwY8ejKIZKe6Mjmhq22/lk7T/HywkzsQoIksaC4eeaO5xOzeXE0W
QM9EkAcIMu+BqO903tyDT/bmhp9MOoMHviOqED1B+r4YtUBnkBYRiz79YdMj3D/j
VWzA4CnLvekHqlH0dtFgfA9ZC4NfK8mmlGywIir2zXyaiY94/o6y5Vc2RxvxwNIi
GyjeXYuWQs77Hi1w1NyrBYWZ8Io6/r2E2SWZK6I6JdqmpO1CNBRr9+PqZsdJAmmu
QFxIKH9ScgxtDxSP8D2Ehtqrv4t09ZT9p4/ivj0=
-----END CERTIFICATE-----
