Certificate:
    Data:
        Version: 3 (0x2)
        Serial Number: 4096 (0x1000)
        Signature Algorithm: md5WithRSAEncryption
        Issuer: C=US, ST=Utah, L=Salt Lake City, O=MyTLSLite, OU=chooms, CN=Main Choom/emailAddress=reynoso.roberto.v@gmail.com
        Validity
            Not Before: Mar 28 04:29:33 2025 GMT
            Not After : Mar 28 04:29:33 2026 GMT
        Subject: C=US, ST=Utah, O=MyTLSLite, OU=chooms, CN=Server Choom/emailAddress=reynoso.roberto.v@gmail.com
        Subject Public Key Info:
            Public Key Algorithm: rsaEncryption
                Public-Key: (4096 bit)
                Modulus:
                    00:ae:ac:b0:8b:03:7f:cd:b7:24:b4:59:77:42:c7:
                    60:d4:20:df:0e:14:ba:29:87:f7:f2:a1:8e:cd:6e:
                    e9:89:73:dd:00:ca:22:67:9b:49:81:41:c0:e0:ef:
                    c5:37:23:d2:bd:3a:02:3a:ba:32:d5:0d:6e:7f:b4:
                    7b:43:0f:69:2e:41:b3:c3:fe:98:39:b5:20:00:a0:
                    a9:ea:a8:f5:a6:68:e3:87:05:db:a8:ba:14:06:dd:
                    84:1c:87:ec:7e:17:ea:98:ff:71:5f:01:cc:93:95:
                    b6:50:33:6d:f2:5a:32:12:00:d7:75:e1:ac:62:d7:
                    70:e1:81:60:39:fc:da:bb:6c:d7:81:82:63:67:9e:
                    7d:47:58:c0:de:c3:83:5e:c2:4d:37:3d:ab:14:2f:
                    12:12:58:14:ac:29:0b:da:aa:72:d9:fd:cd:f3:2e:
                    bd:f8:f0:d9:b0:d6:1e:27:1e:27:b4:d0:8c:c5:40:
                    0f:6b:b6:07:4d:5b:70:bb:53:50:1b:31:84:a1:d7:
                    03:71:5c:da:54:3b:02:b6:ef:a8:95:1a:35:a9:2f:
                    b0:c0:fb:01:ec:93:79:25:95:c1:eb:2a:0e:f3:9f:
                    ab:04:8a:45:f6:49:5b:be:e3:a8:98:84:37:f9:eb:
                    7b:36:94:98:a7:a6:85:f0:2b:37:ed:eb:7b:26:65:
                    51:b2:a2:f2:4a:15:11:ed:a7:3b:96:f7:48:2f:28:
                    6d:83:bb:19:8f:47:63:ba:5e:1a:b4:fa:61:88:33:
                    a1:84:9c:a8:86:01:ee:83:17:c6:6d:fa:63:3a:39:
                    ea:cf:7d:94:78:7f:eb:94:a9:8f:01:12:1b:c7:ee:
                    dc:98:32:69:06:47:7e:42:49:6d:37:18:d8:a5:ed:
                    59:67:a0:9b:95:b7:a7:bd:de:59:5d:a4:24:c0:bc:
                    98:bb:a9:bd:2d:40:45:ea:1d:4c:9f:27:3f:f8:17:
                    d2:a2:41:05:97:ed:06:6d:fe:b5:75:a6:8b:dd:27:
                    77:c5:96:e0:0e:1d:eb:e9:6a:d1:08:b6:a9:8c:cc:
                    16:42:24:e2:4f:e4:ca:35:8e:73:c7:ad:ae:83:76:
                    2a:2b:9d:2f:2a:58:88:5c:b8:a0:2d:f9:c7:f2:3e:
                    76:87:19:03:ce:0a:48:d1:c7:b7:c6:b7:db:87:a9:
                    da:e1:6f:93:f6:1f:25:e8:79:46:ac:1a:bd:73:2e:
                    c2:26:f4:90:36:a8:87:87:d9:65:17:74:f7:d4:2b:
                    e1:41:3e:69:3b:34:67:c4:5c:2d:71:cb:2c:f2:93:
                    f5:ff:59:4e:81:b1:e0:18:cf:93:7a:ac:a0:03:e6:
                    fe:d7:9f:28:79:e4:00:38:1b:de:a6:a5:11:ed:08:
                    b0:2d:2f
                Exponent: 65537 (0x10001)
        X509v3 extensions:
            X509v3 Basic Constraints: 
                CA:FALSE
            Netscape Comment: 
                OpenSSL Generated Certificate
            X509v3 Subject Key Identifier: 
                CC:4F:A6:C4:F4:70:E6:2B:78:C5:9D:7E:A7:D2:CD:32:3A:21:99:0D
            X509v3 Authority Key Identifier: 
                keyid:63:A7:F6:66:79:D6:C4:61:95:0D:90:B3:4F:64:EB:1E:7B:8E:60:96
                DirName:/C=US/ST=Utah/L=Salt Lake City/O=MyTLSLite/OU=chooms/CN=Main Choom/emailAddress=reynoso.roberto.v@gmail.com
                serial:10:37:8B:A7:BC:E4:E7:5C:D0:56:61:2A:D0:8E:EE:6E:32:BB:4C:F7
    Signature Algorithm: md5WithRSAEncryption
    Signature Value:
        4b:68:c6:2b:e5:15:d8:fc:44:85:14:48:93:82:78:7d:4f:5e:
        d0:df:1b:5a:c2:04:0c:d1:c2:64:bf:91:70:b2:be:1e:1a:5f:
        d0:9a:33:36:77:ed:f4:67:7f:6b:c0:90:f8:ab:64:7d:a3:8a:
        19:8c:5e:9e:2c:c5:24:e1:68:37:b4:83:0a:77:94:42:70:33:
        92:ad:53:73:02:aa:26:fb:f6:51:a3:00:e8:4d:c9:1b:e2:f9:
        fc:a2:42:2c:12:27:31:30:cd:81:ae:e1:7d:89:8c:92:53:5e:
        94:40:07:10:9d:ec:9a:ef:2e:cc:6b:fd:dd:38:35:2b:12:ae:
        74:b0:4c:00:32:5b:2f:a8:f3:24:77:e5:fe:d8:5f:e7:5d:db:
        46:87:6f:22:9b:42:64:e6:fb:3a:0a:49:66:55:a1:2b:3e:b9:
        e0:f1:fd:e6:4a:95:a7:af:46:69:18:63:73:9c:1d:5f:78:21:
        89:32:c4:48:1a:17:1c:f3:b8:93:ce:9c:fa:df:6a:38:dd:3e:
        0a:f5:2b:3d:55:20:75:08:bb:df:ac:80:c5:72:3f:57:56:f1:
        31:07:a1:3a:42:42:27:87:f4:d8:27:79:4a:a1:c4:34:74:ec:
        bd:a1:a2:90:ac:46:dc:56:9d:e7:e5:42:7c:0a:17:b2:6a:06:
        dc:16:93:3c:f1:3e:68:48:44:b3:5b:53:d4:a2:7f:e7:f1:50:
        fd:81:83:f0:6d:33:5f:4c:7f:6b:1f:d1:e4:67:21:8a:ae:02:
        43:24:d8:fa:2c:df:6e:41:68:2a:e7:6d:63:a7:3c:7e:e5:1a:
        1d:c0:65:7e:89:c6:2c:7c:df:9b:b2:3f:6c:0e:ba:15:69:ca:
        d7:9f:ac:3d:cf:bc:0c:b0:55:a0:bc:eb:d1:a3:7f:03:11:bf:
        dc:ea:4a:f1:4d:93:23:5f:56:5d:f4:91:4e:69:a4:46:d4:a6:
        a1:04:c7:18:9e:59:5b:6f:1a:5e:fc:e4:07:d9:bc:36:12:92:
        d0:b0:1a:1d:fd:1d:4e:20:12:4e:03:79:b6:1c:6b:2c:7d:b2:
        8c:1c:63:fe:0f:7a:d1:ea:9d:19:c4:6b:9e:6b:2a:cd:c1:61:
        14:93:c8:d2:95:64:f2:96:ee:c7:bd:78:fb:c4:f6:6b:06:3b:
        70:15:3f:93:78:5b:6a:03:5c:c3:1c:4d:a6:fe:5e:aa:ff:3c:
        d7:fb:00:bd:b4:1c:76:7d:c5:6c:eb:e2:b2:54:6c:9d:98:5b:
        0d:ad:45:db:c4:7a:87:2a:c3:ac:95:bf:47:35:15:d1:2f:0d:
        07:f0:03:46:e0:a3:b1:b5:0d:58:fd:25:6c:01:67:0a:ce:8c:
        db:e5:f3:e2:98:d9:ab:d1
-----BEGIN CERTIFICATE-----
MIIG2TCCBMGgAwIBAgICEAAwDQYJKoZIhvcNAQEEBQAwgZsxCzAJBgNVBAYTAlVT
MQ0wCwYDVQQIDARVdGFoMRcwFQYDVQQHDA5TYWx0IExha2UgQ2l0eTESMBAGA1UE
CgwJTXlUTFNMaXRlMQ8wDQYDVQQLDAZjaG9vbXMxEzARBgNVBAMMCk1haW4gQ2hv
b20xKjAoBgkqhkiG9w0BCQEWG3JleW5vc28ucm9iZXJ0by52QGdtYWlsLmNvbTAe
Fw0yNTAzMjgwNDI5MzNaFw0yNjAzMjgwNDI5MzNaMIGEMQswCQYDVQQGEwJVUzEN
MAsGA1UECAwEVXRhaDESMBAGA1UECgwJTXlUTFNMaXRlMQ8wDQYDVQQLDAZjaG9v
bXMxFTATBgNVBAMMDFNlcnZlciBDaG9vbTEqMCgGCSqGSIb3DQEJARYbcmV5bm9z
by5yb2JlcnRvLnZAZ21haWwuY29tMIICIjANBgkqhkiG9w0BAQEFAAOCAg8AMIIC
CgKCAgEArqywiwN/zbcktFl3Qsdg1CDfDhS6KYf38qGOzW7piXPdAMoiZ5tJgUHA
4O/FNyPSvToCOroy1Q1uf7R7Qw9pLkGzw/6YObUgAKCp6qj1pmjjhwXbqLoUBt2E
HIfsfhfqmP9xXwHMk5W2UDNt8loyEgDXdeGsYtdw4YFgOfzau2zXgYJjZ559R1jA
3sODXsJNNz2rFC8SElgUrCkL2qpy2f3N8y69+PDZsNYeJx4ntNCMxUAPa7YHTVtw
u1NQGzGEodcDcVzaVDsCtu+olRo1qS+wwPsB7JN5JZXB6yoO85+rBIpF9klbvuOo
mIQ3+et7NpSYp6aF8Cs37et7JmVRsqLyShUR7ac7lvdILyhtg7sZj0djul4atPph
iDOhhJyohgHugxfGbfpjOjnqz32UeH/rlKmPARIbx+7cmDJpBkd+QkltNxjYpe1Z
Z6Cblbenvd5ZXaQkwLyYu6m9LUBF6h1Mnyc/+BfSokEFl+0Gbf61daaL3Sd3xZbg
Dh3r6WrRCLapjMwWQiTiT+TKNY5zx62ug3YqK50vKliIXLigLfnH8j52hxkDzgpI
0ce3xrfbh6na4W+T9h8l6HlGrBq9cy7CJvSQNqiHh9llF3T31CvhQT5pOzRnxFwt
ccss8pP1/1lOgbHgGM+TeqygA+b+158oeeQAOBvepqUR7QiwLS8CAwEAAaOCATow
ggE2MAkGA1UdEwQCMAAwLAYJYIZIAYb4QgENBB8WHU9wZW5TU0wgR2VuZXJhdGVk
IENlcnRpZmljYXRlMB0GA1UdDgQWBBTMT6bE9HDmK3jFnX6n0s0yOiGZDTCB2wYD
VR0jBIHTMIHQgBRjp/ZmedbEYZUNkLNPZOsee45glqGBoaSBnjCBmzELMAkGA1UE
BhMCVVMxDTALBgNVBAgMBFV0YWgxFzAVBgNVBAcMDlNhbHQgTGFrZSBDaXR5MRIw
EAYDVQQKDAlNeVRMU0xpdGUxDzANBgNVBAsMBmNob29tczETMBEGA1UEAwwKTWFp
biBDaG9vbTEqMCgGCSqGSIb3DQEJARYbcmV5bm9zby5yb2JlcnRvLnZAZ21haWwu
Y29tghQQN4unvOTnXNBWYSrQju5uMrtM9zANBgkqhkiG9w0BAQQFAAOCAgEAS2jG
K+UV2PxEhRRIk4J4fU9e0N8bWsIEDNHCZL+RcLK+Hhpf0JozNnft9Gd/a8CQ+Ktk
faOKGYxenizFJOFoN7SDCneUQnAzkq1TcwKqJvv2UaMA6E3JG+L5/KJCLBInMTDN
ga7hfYmMklNelEAHEJ3smu8uzGv93Tg1KxKudLBMADJbL6jzJHfl/thf513bRodv
IptCZOb7OgpJZlWhKz654PH95kqVp69GaRhjc5wdX3ghiTLESBoXHPO4k86c+t9q
ON0+CvUrPVUgdQi736yAxXI/V1bxMQehOkJCJ4f02Cd5SqHENHTsvaGikKxG3Fad
5+VCfAoXsmoG3BaTPPE+aEhEs1tT1KJ/5/FQ/YGD8G0zX0x/ax/R5Gchiq4CQyTY
+izfbkFoKudtY6c8fuUaHcBlfonGLHzfm7I/bA66FWnK15+sPc+8DLBVoLzr0aN/
AxG/3OpK8U2TI19WXfSRTmmkRtSmoQTHGJ5ZW28aXvzkB9m8NhKS0LAaHf0dTiAS
TgN5thxrLH2yjBxj/g960eqdGcRrnmsqzcFhFJPI0pVk8pbux714+8T2awY7cBU/
k3hbagNcwxxNpv5eqv881/sAvbQcdn3FbOvislRsnZhbDa1F28R6hyrDrJW/RzUV
0S8NB/ADRuCjsbUNWP0lbAFnCs6M2+Xz4pjZq9E=
-----END CERTIFICATE-----
